; Function Attrs: mustprogress nofree norecurse nosync nounwind willreturn memory(write, argmem: readwrite, inaccessiblemem: none) uwtable
define dso_local void @_ZN4Luau7CodeGen3X6418AssemblyBuilderX6413placeImm8Or32Ei(ptr noundef nonnull align 8 captures(none) dereferenceable(252) %0, i32 noundef %1) local_unnamed_addr #5 align 2 {
  %3 = add i32 %1, 128
  %4 = icmp ult i32 %3, 256
  br i1 %4, label %5, label %10

5:                                                ; preds = %2
  %6 = trunc i32 %1 to i8
  %7 = getelementptr inbounds nuw i8, ptr %0, i64 232
  %8 = load ptr, ptr %7, align 8, !tbaa !51
  %9 = getelementptr inbounds nuw i8, ptr %8, i64 1
  store ptr %9, ptr %7, align 8, !tbaa !51
  store i8 %6, ptr %8, align 1, !tbaa !13
  br label %14

10:                                               ; preds = %2
  %11 = getelementptr inbounds nuw i8, ptr %0, i64 232
  %12 = load ptr, ptr %11, align 8, !tbaa !51
  store i32 %1, ptr %12, align 1
  %13 = getelementptr inbounds nuw i8, ptr %12, i64 4
  store ptr %13, ptr %11, align 8, !tbaa !51
  br label %14

14:                                               ; preds = %10, %5
  ret void
}